target datalayout = "e-m:e-p270:32:32-p271:32:32-p272:64:64-i64:64-i128:128-f80:128-n8:16:32:64-S128"
target triple = "x86_64-pc-linux-gnu"

%class.SpaceInfo = type { ptr, ptr, ptr, ptr, %class.SplitInfo }
%class.SplitInfo = type { i64, i64, ptr, i32, ptr, ptr }
%class.MemRegion = type { ptr, i64 }
%class.ParallelCompactData = type { ptr, ptr, i64, ptr, i64 }
%class.MutableSpace = type { ptr, %class.MemRegion, i64, ptr, ptr, ptr }
%class.ParCompactionManager = type { [8 x i8], %class.OverflowTaskQueue, %class.OverflowTaskQueue.0, i64, %class.OverflowTaskQueue.5, ptr, %"class.StringDedup::Requests", ptr }
%class.OverflowTaskQueue = type { %class.GenericTaskQueue, %class.Stack }
%class.GenericTaskQueue = type { %class.TaskQueueSuper, ptr, [120 x i8], i32, i32, [120 x i8] }
%class.TaskQueueSuper = type { [128 x i8], i32, [124 x i8], %"class.TaskQueueSuper<131072, MEMFLAGS::mtGC>::Age", [120 x i8] }
%"class.TaskQueueSuper<131072, MEMFLAGS::mtGC>::Age" = type { %union.anon }
%union.anon = type { i64 }
%class.Stack = type { ptr, %class.StackBase, ptr, ptr }
%class.StackBase = type { i64, i64, i64, i64, i64, i64 }
%class.OverflowTaskQueue.0 = type { %class.GenericTaskQueue.1, %class.Stack.4 }
%class.GenericTaskQueue.1 = type { %class.TaskQueueSuper.2, ptr, [120 x i8], i32, i32, [120 x i8] }
%class.TaskQueueSuper.2 = type { [128 x i8], i32, [124 x i8], %"class.TaskQueueSuper<8192, MEMFLAGS::mtGC>::Age", [120 x i8] }
%"class.TaskQueueSuper<8192, MEMFLAGS::mtGC>::Age" = type { %union.anon.3 }
%union.anon.3 = type { i64 }
%class.Stack.4 = type { ptr, %class.StackBase, ptr, ptr }
%class.OverflowTaskQueue.5 = type { %class.GenericTaskQueue.6, %class.Stack.7 }
%class.GenericTaskQueue.6 = type { %class.TaskQueueSuper, ptr, [120 x i8], i32, i32, [120 x i8] }
%class.Stack.7 = type { ptr, %class.StackBase, ptr, ptr }
%"class.StringDedup::Requests" = type <{ ptr, ptr, i64, i8, [7 x i8] }>

@_ZN17PSParallelCompact11_space_infoE = hidden global [4 x %class.SpaceInfo] zeroinitializer, align 16
@_ZN17PSParallelCompact13_summary_dataE = hidden global %class.ParallelCompactData zeroinitializer, align 8

; Function Attrs: mustprogress nounwind uwtable
define linkonce_odr hidden noundef i64 @_Z13pointer_deltaPVKvS0_m(ptr noundef %0, ptr noundef %1, i64 noundef %2) #1 comdat {
  %4 = alloca ptr, align 8
  %5 = alloca ptr, align 8
  %6 = alloca i64, align 8
  store ptr %0, ptr %4, align 8
  store ptr %1, ptr %5, align 8
  store i64 %2, ptr %6, align 8
  %7 = load ptr, ptr %4, align 8
  %8 = ptrtoint ptr %7 to i64
  %9 = load ptr, ptr %5, align 8
  %10 = ptrtoint ptr %9 to i64
  %11 = sub i64 %8, %10
  %12 = load i64, ptr %6, align 8
  %13 = udiv i64 %11, %12
  ret i64 %13
}

; Function Attrs: mustprogress nounwind uwtable
define linkonce_odr hidden noundef i64 @_Z13pointer_deltaPKP12HeapWordImplS2_(ptr noundef %0, ptr noundef %1) #1 comdat {
  %3 = alloca ptr, align 8
  %4 = alloca ptr, align 8
  store ptr %0, ptr %3, align 8
  store ptr %1, ptr %4, align 8
  %5 = load ptr, ptr %3, align 8
  %6 = load ptr, ptr %4, align 8
  %7 = call noundef i64 @_Z13pointer_deltaPVKvS0_m(ptr noundef %5, ptr noundef %6, i64 noundef 8)
  ret i64 %7
}

; Function Attrs: mustprogress nounwind uwtable
define linkonce_odr hidden void @_ZN20ParCompactionManager22set_next_shadow_regionEm(ptr noundef nonnull align 8 dereferenceable(2200) %0, i64 noundef %1) #1 comdat align 2 {
  %3 = alloca ptr, align 8
  %4 = alloca i64, align 8
  store ptr %0, ptr %3, align 8
  store i64 %1, ptr %4, align 8
  %5 = load ptr, ptr %3, align 8
  %6 = load i64, ptr %4, align 8
  %7 = getelementptr inbounds %class.ParCompactionManager, ptr %5, i32 0, i32 3
  store i64 %6, ptr %7, align 8
  ret void
}

; Function Attrs: mustprogress nounwind uwtable
define linkonce_odr hidden noundef ptr @_ZNK9SpaceInfo12dense_prefixEv(ptr noundef nonnull align 8 dereferenceable(80) %0) #1 comdat align 2 {
  %2 = alloca ptr, align 8
  store ptr %0, ptr %2, align 8
  %3 = load ptr, ptr %2, align 8
  %4 = getelementptr inbounds %class.SpaceInfo, ptr %3, i32 0, i32 2
  %5 = load ptr, ptr %4, align 8
  ret ptr %5
}

; Function Attrs: mustprogress nounwind uwtable
define linkonce_odr hidden noundef ptr @_ZNK19ParallelCompactData17region_align_downEPP12HeapWordImpl(ptr noundef nonnull align 8 dereferenceable(40) %0, ptr noundef %1) #1 comdat align 2 {
  %3 = alloca ptr, align 8
  %4 = alloca ptr, align 8
  store ptr %0, ptr %3, align 8
  store ptr %1, ptr %4, align 8
  %5 = load ptr, ptr %4, align 8
  %6 = ptrtoint ptr %5 to i64
  %7 = and i64 %6, -524288
  %8 = inttoptr i64 %7 to ptr
  ret ptr %8
}

; Function Attrs: mustprogress nounwind uwtable
define linkonce_odr hidden noundef ptr @_ZNK12MutableSpace3endEv(ptr noundef nonnull align 8 dereferenceable(56) %0) #1 comdat align 2 {
  %2 = alloca ptr, align 8
  store ptr %0, ptr %2, align 8
  %3 = load ptr, ptr %2, align 8
  %4 = getelementptr inbounds %class.MutableSpace, ptr %3, i32 0, i32 5
  %5 = load ptr, ptr %4, align 8
  ret ptr %5
}

; Function Attrs: mustprogress nounwind uwtable
define linkonce_odr hidden noundef i64 @_ZNK19ParallelCompactData18addr_to_region_idxEPKP12HeapWordImpl(ptr noundef nonnull align 8 dereferenceable(40) %0, ptr noundef %1) #1 comdat align 2 {
  %3 = alloca ptr, align 8
  %4 = alloca ptr, align 8
  store ptr %0, ptr %3, align 8
  store ptr %1, ptr %4, align 8
  %5 = load ptr, ptr %3, align 8
  %6 = load ptr, ptr %4, align 8
  %7 = getelementptr inbounds %class.ParallelCompactData, ptr %5, i32 0, i32 0
  %8 = load ptr, ptr %7, align 8
  %9 = call noundef i64 @_Z13pointer_deltaPKP12HeapWordImplS2_(ptr noundef %6, ptr noundef %8)
  %10 = lshr i64 %9, 16
  ret i64 %10
}

; Function Attrs: mustprogress nounwind uwtable
define linkonce_odr hidden noundef ptr @_ZNK19ParallelCompactData15region_align_upEPP12HeapWordImpl(ptr noundef nonnull align 8 dereferenceable(40) %0, ptr noundef %1) #1 comdat align 2 {
  %3 = alloca ptr, align 8
  %4 = alloca ptr, align 8
  store ptr %0, ptr %3, align 8
  store ptr %1, ptr %4, align 8
  %5 = load ptr, ptr %3, align 8
  %6 = load ptr, ptr %4, align 8
  %7 = getelementptr inbounds ptr, ptr %6, i64 65535
  %8 = call noundef ptr @_ZNK19ParallelCompactData17region_align_downEPP12HeapWordImpl(ptr noundef nonnull align 8 dereferenceable(40) %5, ptr noundef %7)
  ret ptr %8
}

; Function Attrs: mustprogress nounwind uwtable
define linkonce_odr hidden noundef ptr @_Z4MAX2IPP12HeapWordImplET_S3_S3_(ptr noundef %0, ptr noundef %1) #1 comdat {
  %3 = alloca ptr, align 8
  %4 = alloca ptr, align 8
  store ptr %0, ptr %3, align 8
  store ptr %1, ptr %4, align 8
  %5 = load ptr, ptr %3, align 8
  %6 = load ptr, ptr %4, align 8
  %7 = icmp ugt ptr %5, %6
  br i1 %7, label %8, label %10

8:                                                ; preds = %2
  %9 = load ptr, ptr %3, align 8
  br label %12

10:                                               ; preds = %2
  %11 = load ptr, ptr %4, align 8
  br label %12

12:                                               ; preds = %10, %8
  %13 = phi ptr [ %9, %8 ], [ %11, %10 ]
  ret ptr %13
}

; Function Attrs: mustprogress nounwind uwtable
define linkonce_odr hidden noundef ptr @_ZNK12MutableSpace3topEv(ptr noundef nonnull align 8 dereferenceable(56) %0) #1 comdat align 2 {
  %2 = alloca ptr, align 8
  store ptr %0, ptr %2, align 8
  %3 = load ptr, ptr %2, align 8
  %4 = getelementptr inbounds %class.MutableSpace, ptr %3, i32 0, i32 4
  %5 = load volatile ptr, ptr %4, align 8
  ret ptr %5
}

; Function Attrs: mustprogress nounwind uwtable
define linkonce_odr hidden noundef ptr @_ZNK9SpaceInfo7new_topEv(ptr noundef nonnull align 8 dereferenceable(80) %0) #1 comdat align 2 {
  %2 = alloca ptr, align 8
  store ptr %0, ptr %2, align 8
  %3 = load ptr, ptr %2, align 8
  %4 = getelementptr inbounds %class.SpaceInfo, ptr %3, i32 0, i32 1
  %5 = load ptr, ptr %4, align 8
  ret ptr %5
}

; Function Attrs: mustprogress nounwind uwtable
define linkonce_odr hidden noundef ptr @_ZNK9SpaceInfo5spaceEv(ptr noundef nonnull align 8 dereferenceable(80) %0) #1 comdat align 2 {
  %2 = alloca ptr, align 8
  store ptr %0, ptr %2, align 8
  %3 = load ptr, ptr %2, align 8
  %4 = getelementptr inbounds %class.SpaceInfo, ptr %3, i32 0, i32 0
  %5 = load ptr, ptr %4, align 8
  ret ptr %5
}

; Function Attrs: mustprogress nounwind uwtable
define linkonce_odr hidden noundef nonnull align 8 dereferenceable(40) ptr @_ZN17PSParallelCompact12summary_dataEv() #1 comdat align 2 {
  ret ptr @_ZN17PSParallelCompact13_summary_dataE
}

; Function Attrs: mustprogress nounwind uwtable
define hidden void @_ZN17PSParallelCompact25initialize_shadow_regionsEj(i32 noundef %0) #1 align 2 {
  %2 = alloca i32, align 4
  %3 = alloca ptr, align 8
  %4 = alloca i32, align 4
  %5 = alloca ptr, align 8
  %6 = alloca ptr, align 8
  %7 = alloca i64, align 8
  %8 = alloca i64, align 8
  %9 = alloca i64, align 8
  %10 = alloca i64, align 8
  %11 = alloca i32, align 4
  %12 = alloca ptr, align 8
  store i32 %0, ptr %2, align 4
  %13 = call noundef nonnull align 8 dereferenceable(40) ptr @_ZN17PSParallelCompact12summary_dataEv()
  store ptr %13, ptr %3, align 8
  store i32 0, ptr %4, align 4
  br label %14

14:                                               ; preds = %49, %1
  %15 = load i32, ptr %4, align 4
  %16 = icmp ult i32 %15, 4
  br i1 %16, label %17, label %52

17:                                               ; preds = %14
  %18 = load i32, ptr %4, align 4
  %19 = zext i32 %18 to i64
  %20 = getelementptr inbounds %class.SpaceInfo, ptr @_ZN17PSParallelCompact11_space_infoE, i64 %19
  store ptr %20, ptr %5, align 8
  %21 = load ptr, ptr %5, align 8
  %22 = call noundef ptr @_ZNK9SpaceInfo5spaceEv(ptr noundef nonnull align 8 dereferenceable(80) %21)
  store ptr %22, ptr %6, align 8
  %23 = load ptr, ptr %3, align 8
  %24 = load ptr, ptr %3, align 8
  %25 = load ptr, ptr %5, align 8
  %26 = call noundef ptr @_ZNK9SpaceInfo7new_topEv(ptr noundef nonnull align 8 dereferenceable(80) %25)
  %27 = load ptr, ptr %6, align 8
  %28 = call noundef ptr @_ZNK12MutableSpace3topEv(ptr noundef nonnull align 8 dereferenceable(56) %27)
  %29 = call noundef ptr @_Z4MAX2IPP12HeapWordImplET_S3_S3_(ptr noundef %26, ptr noundef %28)
  %30 = call noundef ptr @_ZNK19ParallelCompactData15region_align_upEPP12HeapWordImpl(ptr noundef nonnull align 8 dereferenceable(40) %24, ptr noundef %29)
  %31 = call noundef i64 @_ZNK19ParallelCompactData18addr_to_region_idxEPKP12HeapWordImpl(ptr noundef nonnull align 8 dereferenceable(40) %23, ptr noundef %30)
  store i64 %31, ptr %7, align 8
  %32 = load ptr, ptr %3, align 8
  %33 = load ptr, ptr %3, align 8
  %34 = load ptr, ptr %6, align 8
  %35 = call noundef ptr @_ZNK12MutableSpace3endEv(ptr noundef nonnull align 8 dereferenceable(56) %34)
  %36 = call noundef ptr @_ZNK19ParallelCompactData17region_align_downEPP12HeapWordImpl(ptr noundef nonnull align 8 dereferenceable(40) %33, ptr noundef %35)
  %37 = call noundef i64 @_ZNK19ParallelCompactData18addr_to_region_idxEPKP12HeapWordImpl(ptr noundef nonnull align 8 dereferenceable(40) %32, ptr noundef %36)
  store i64 %37, ptr %8, align 8
  %38 = load i64, ptr %7, align 8
  store i64 %38, ptr %9, align 8
  br label %39

39:                                               ; preds = %45, %17
  %40 = load i64, ptr %9, align 8
  %41 = load i64, ptr %8, align 8
  %42 = icmp ult i64 %40, %41
  br i1 %42, label %43, label %48

43:                                               ; preds = %39
  %44 = load i64, ptr %9, align 8
  call void @_ZN20ParCompactionManager18push_shadow_regionEm(i64 noundef %44)
  br label %45

45:                                               ; preds = %43
  %46 = load i64, ptr %9, align 8
  %47 = add i64 %46, 1
  store i64 %47, ptr %9, align 8
  br label %39, !llvm.loop !27

48:                                               ; preds = %39
  br label %49

49:                                               ; preds = %48
  %50 = load i32, ptr %4, align 4
  %51 = add i32 %50, 1
  store i32 %51, ptr %4, align 4
  br label %14, !llvm.loop !28

52:                                               ; preds = %14
  %53 = load ptr, ptr %3, align 8
  %54 = call noundef ptr @_ZNK9SpaceInfo12dense_prefixEv(ptr noundef nonnull align 8 dereferenceable(80) @_ZN17PSParallelCompact11_space_infoE)
  %55 = call noundef i64 @_ZNK19ParallelCompactData18addr_to_region_idxEPKP12HeapWordImpl(ptr noundef nonnull align 8 dereferenceable(40) %53, ptr noundef %54)
  store i64 %55, ptr %10, align 8
  store i32 0, ptr %11, align 4
  br label %56

56:                                               ; preds = %68, %52
  %57 = load i32, ptr %11, align 4
  %58 = load i32, ptr %2, align 4
  %59 = icmp ult i32 %57, %58
  br i1 %59, label %60, label %71

60:                                               ; preds = %56
  %61 = load i32, ptr %11, align 4
  %62 = call noundef ptr @_ZN20ParCompactionManager28gc_thread_compaction_managerEj(i32 noundef %61)
  store ptr %62, ptr %12, align 8
  %63 = load ptr, ptr %12, align 8
  %64 = load i64, ptr %10, align 8
  %65 = load i32, ptr %11, align 4
  %66 = zext i32 %65 to i64
  %67 = add i64 %64, %66
  call void @_ZN20ParCompactionManager22set_next_shadow_regionEm(ptr noundef nonnull align 8 dereferenceable(2200) %63, i64 noundef %67)
  br label %68

68:                                               ; preds = %60
  %69 = load i32, ptr %11, align 4
  %70 = add i32 %69, 1
  store i32 %70, ptr %11, align 4
  br label %56, !llvm.loop !29

71:                                               ; preds = %56
  ret void
}