; Function Attrs: mustprogress nounwind uwtable
define hidden void @_ZN17PSParallelCompact25initialize_shadow_regionsEj(i32 noundef %0) local_unnamed_addr #0 align 2 {
  br label %2

2:                                                ; preds = %1, %._crit_edge
  %indvars.iv = phi i64 [ 0, %1 ], [ %indvars.iv.next, %._crit_edge ]
  %3 = getelementptr inbounds %class.SpaceInfo, ptr @_ZN17PSParallelCompact11_space_infoE, i64 %indvars.iv
  %4 = load ptr, ptr %3, align 16
  %5 = getelementptr inbounds i8, ptr %3, i64 8
  %6 = load ptr, ptr %5, align 8
  %7 = getelementptr inbounds i8, ptr %4, i64 40
  %8 = load volatile ptr, ptr %7, align 8
  %9 = icmp ugt ptr %6, %8
  %10 = select i1 %9, ptr %6, ptr %8
  %11 = getelementptr inbounds i8, ptr %10, i64 524280
  %12 = ptrtoint ptr %11 to i64
  %13 = and i64 %12, -524288
  %14 = load ptr, ptr @_ZN17PSParallelCompact13_summary_dataE, align 8
  %15 = ptrtoint ptr %14 to i64
  %16 = sub i64 %13, %15
  %17 = lshr i64 %16, 19
  %18 = getelementptr inbounds i8, ptr %4, i64 48
  %19 = load ptr, ptr %18, align 8
  %20 = ptrtoint ptr %19 to i64
  %21 = and i64 %20, -524288
  %22 = sub i64 %21, %15
  %23 = lshr i64 %22, 19
  %24 = icmp ult i64 %17, %23
  br i1 %24, label %.lr.ph, label %._crit_edge

.lr.ph:                                           ; preds = %2, %.lr.ph
  %.02425 = phi i64 [ %25, %.lr.ph ], [ %17, %2 ]
  tail call void @_ZN20ParCompactionManager18push_shadow_regionEm(i64 noundef %.02425) #25
  %25 = add nuw nsw i64 %.02425, 1
  %exitcond.not = icmp eq i64 %25, %23
  br i1 %exitcond.not, label %._crit_edge, label %.lr.ph, !llvm.loop !26

._crit_edge:                                      ; preds = %.lr.ph, %2
  %indvars.iv.next = add nuw nsw i64 %indvars.iv, 1
  %exitcond32.not = icmp eq i64 %indvars.iv.next, 4
  br i1 %exitcond32.not, label %26, label %2, !llvm.loop !27

26:                                               ; preds = %._crit_edge
  %27 = load ptr, ptr getelementptr inbounds (i8, ptr @_ZN17PSParallelCompact11_space_infoE, i64 16), align 16
  %28 = load ptr, ptr @_ZN17PSParallelCompact13_summary_dataE, align 8
  %29 = ptrtoint ptr %27 to i64
  %30 = ptrtoint ptr %28 to i64
  %31 = sub i64 %29, %30
  %32 = lshr i64 %31, 19
  %.not = icmp eq i32 %0, 0
  br i1 %.not, label %._crit_edge30, label %.lr.ph29.preheader

.lr.ph29.preheader:                               ; preds = %26
  %wide.trip.count = zext i32 %0 to i64
  br label %.lr.ph29

.lr.ph29:                                         ; preds = %.lr.ph29.preheader, %.lr.ph29
  %indvars.iv33 = phi i64 [ 0, %.lr.ph29.preheader ], [ %indvars.iv.next34, %.lr.ph29 ]
  %33 = trunc nuw i64 %indvars.iv33 to i32
  %34 = tail call noundef ptr @_ZN20ParCompactionManager28gc_thread_compaction_managerEj(i32 noundef %33) #25
  %35 = add nuw nsw i64 %32, %indvars.iv33
  %36 = getelementptr inbounds i8, ptr %34, i64 1432
  store i64 %35, ptr %36, align 8
  %indvars.iv.next34 = add nuw nsw i64 %indvars.iv33, 1
  %exitcond36.not = icmp eq i64 %indvars.iv.next34, %wide.trip.count
  br i1 %exitcond36.not, label %._crit_edge30, label %.lr.ph29, !llvm.loop !28

._crit_edge30:                                    ; preds = %.lr.ph29, %26
  ret void
}